Certificate:
    Data:
        Version: 3 (0x2)
        Serial Number: 1 (0x1)
        Signature Algorithm: ecdsa-with-SHA256
        Issuer: CN=178.62.36.187
        Validity
            Not Before: May 23 08:18:14 2020 GMT
            Not After : May 21 08:18:14 2030 GMT
        Subject: CN=178.62.36.187
        Subject Public Key Info:
            Public Key Algorithm: id-ecPublicKey
                Public-Key: (384 bit)
                pub:
                    04:7a:bd:75:63:3b:48:aa:66:c8:25:84:22:16:9c:
                    8b:74:5b:79:6f:50:0f:75:1b:28:5c:5e:63:a2:fb:
                    bc:e0:b2:f7:0e:b7:e9:f9:d1:4b:ac:46:b8:4d:9d:
                    c5:21:49:87:69:19:6d:4b:c7:e3:7c:00:2a:c5:07:
                    0b:da:af:3a:a1:32:ac:b6:d5:75:f5:f8:47:46:46:
                    5a:74:c3:9d:4d:1a:34:d5:31:12:1f:1a:3b:21:df:
                    be:f4:e9:c5:58:a4:e4
                ASN1 OID: secp384r1
                NIST CURVE: P-384
        X509v3 extensions:
            X509v3 Basic Constraints: 
                CA:FALSE
            X509v3 Subject Key Identifier: 
                D4:9B:D8:1C:C7:D3:1D:25:8C:FA:59:85:B5:1B:B9:0E:0E:9E:34:00
            X509v3 Authority Key Identifier: 
                keyid:A1:0A:98:18:63:C0:96:94:A9:8B:7D:F2:3F:07:0E:08:DE:FC:E1:24
                DirName:/CN=178.62.36.187
                serial:36:F8:B4:C1:76:58:39:6D:C9:37:AB:59:47:58:5B:74:3F:A0:EA:4C

            X509v3 Extended Key Usage: 
                TLS Web Server Authentication, TLS Web Client Authentication, ipsec Internet Key Exchange
            X509v3 Key Usage: 
                Digital Signature, Key Encipherment
            X509v3 Subject Alternative Name: 
                IP Address:178.62.36.187, IP Address:2A03:B0C0:1:D0:0:0:5E:1
    Signature Algorithm: ecdsa-with-SHA256
         30:66:02:31:00:a1:7a:b0:b7:ff:32:88:ba:40:5c:c8:df:92:
         d2:d4:46:ec:a0:80:b9:00:ba:d7:64:4b:ee:cc:98:86:81:f0:
         d6:bb:2d:9b:ca:a9:b4:5d:37:df:73:08:0d:df:92:2b:8c:02:
         31:00:d3:40:dd:26:58:59:62:14:c0:f7:0c:68:99:0d:a9:90:
         1c:8c:43:bf:c8:8a:aa:42:f2:de:a5:7f:5e:05:04:dc:02:64:
         c1:f6:4a:76:f1:9d:12:dd:67:f5:ce:d7:e8:d3
-----BEGIN CERTIFICATE-----
MIICOTCCAb6gAwIBAgIBATAKBggqhkjOPQQDAjAYMRYwFAYDVQQDDA0xNzguNjIu
MzYuMTg3MB4XDTIwMDUyMzA4MTgxNFoXDTMwMDUyMTA4MTgxNFowGDEWMBQGA1UE
AwwNMTc4LjYyLjM2LjE4NzB2MBAGByqGSM49AgEGBSuBBAAiA2IABHq9dWM7SKpm
yCWEIhaci3RbeW9QD3UbKFxeY6L7vOCy9w636fnRS6xGuE2dxSFJh2kZbUvH43wA
KsUHC9qvOqEyrLbVdfX4R0ZGWnTDnU0aNNUxEh8aOyHfvvTpxVik5KOB2zCB2DAJ
BgNVHRMEAjAAMB0GA1UdDgQWBBTUm9gcx9MdJYz6WYW1G7kODp40ADBTBgNVHSME
TDBKgBShCpgYY8CWlKmLffI/Bw4I3vzhJKEcpBowGDEWMBQGA1UEAwwNMTc4LjYy
LjM2LjE4N4IUNvi0wXZYOW3JN6tZR1hbdD+g6kwwJwYDVR0lBCAwHgYIKwYBBQUH
AwEGCCsGAQUFBwMCBggrBgEFBQcDETALBgNVHQ8EBAMCBaAwIQYDVR0RBBowGIcE
sj4ku4cQKgOwwAABANAAAAAAAF4AATAKBggqhkjOPQQDAgNpADBmAjEAoXqwt/8y
iLpAXMjfktLURuyggLkAutdkS+7MmIaB8Na7LZvKqbRdN99zCA3fkiuMAjEA00Dd
JlhZYhTA9wxomQ2pkByMQ7/IiqpC8t6lf14FBNwCZMH2SnbxnRLdZ/XO1+jT
-----END CERTIFICATE-----
