Certificate:
    Data:
        Version: 3 (0x2)
        Serial Number: 3 (0x3)
        Signature Algorithm: ecdsa-with-SHA256
        Issuer: CN=178.62.36.187
        Validity
            Not Before: May 23 08:18:15 2020 GMT
            Not After : May 21 08:18:15 2030 GMT
        Subject: CN=pchen1421
        Subject Public Key Info:
            Public Key Algorithm: id-ecPublicKey
                Public-Key: (384 bit)
                pub:
                    04:eb:b8:35:9c:72:f4:3b:99:64:50:48:54:25:90:
                    e9:ea:08:84:90:54:67:1f:bd:0e:49:88:46:8b:1b:
                    f3:d8:fe:a4:e4:4c:f7:c3:16:60:99:da:5d:0b:72:
                    86:70:d2:15:75:e0:6d:e6:81:2b:b4:91:72:a7:32:
                    06:5f:e7:24:4d:14:0a:3b:11:ba:20:58:2d:69:10:
                    29:77:c0:0a:a6:0b:1f:a5:ba:28:d1:82:0e:23:a7:
                    f6:65:27:bc:c0:af:17
                ASN1 OID: secp384r1
                NIST CURVE: P-384
        X509v3 extensions:
            X509v3 Basic Constraints: 
                CA:FALSE
            X509v3 Subject Key Identifier: 
                C1:E1:E8:C5:8E:77:36:9C:B6:4A:96:C1:25:1D:1B:E8:73:D9:F9:74
            X509v3 Authority Key Identifier: 
                keyid:A1:0A:98:18:63:C0:96:94:A9:8B:7D:F2:3F:07:0E:08:DE:FC:E1:24
                DirName:/CN=178.62.36.187
                serial:36:F8:B4:C1:76:58:39:6D:C9:37:AB:59:47:58:5B:74:3F:A0:EA:4C

            X509v3 Extended Key Usage: 
                TLS Web Server Authentication, TLS Web Client Authentication, ipsec Internet Key Exchange
            X509v3 Key Usage: 
                Digital Signature, Key Encipherment
            X509v3 Subject Alternative Name: 
                email:pchen1421@685ff771-1e07-5bef-a665-d4ec5f6ba807.algo
    Signature Algorithm: ecdsa-with-SHA256
         30:66:02:31:00:bd:5b:da:fb:54:b6:80:f9:8f:76:e6:06:e9:
         d1:cb:f1:4c:12:b6:c3:53:cd:db:97:d5:22:ae:9d:f6:0a:ac:
         fa:72:a5:f8:23:81:30:bc:b9:72:bb:06:6c:24:07:c7:8a:02:
         31:00:cb:fc:e7:28:b5:eb:c0:a0:c7:79:e6:c8:b4:fd:79:ac:
         99:03:30:7e:6f:d5:86:4b:47:82:16:fa:71:c1:00:20:ee:7a:
         eb:e5:7f:8d:6c:fe:d4:dd:ba:ab:36:ed:3e:c5
-----BEGIN CERTIFICATE-----
MIICUjCCAdegAwIBAgIBAzAKBggqhkjOPQQDAjAYMRYwFAYDVQQDDA0xNzguNjIu
MzYuMTg3MB4XDTIwMDUyMzA4MTgxNVoXDTMwMDUyMTA4MTgxNVowFDESMBAGA1UE
AwwJcGNoZW4xNDIxMHYwEAYHKoZIzj0CAQYFK4EEACIDYgAE67g1nHL0O5lkUEhU
JZDp6giEkFRnH70OSYhGixvz2P6k5Ez3wxZgmdpdC3KGcNIVdeBt5oErtJFypzIG
X+ckTRQKOxG6IFgtaRApd8AKpgsfpboo0YIOI6f2ZSe8wK8Xo4H4MIH1MAkGA1Ud
EwQCMAAwHQYDVR0OBBYEFMHh6MWOdzactkqWwSUdG+hz2fl0MFMGA1UdIwRMMEqA
FKEKmBhjwJaUqYt98j8HDgje/OEkoRykGjAYMRYwFAYDVQQDDA0xNzguNjIuMzYu
MTg3ghQ2+LTBdlg5bck3q1lHWFt0P6DqTDAnBgNVHSUEIDAeBggrBgEFBQcDAQYI
KwYBBQUHAwIGCCsGAQUFBwMRMAsGA1UdDwQEAwIFoDA+BgNVHREENzA1gTNwY2hl
bjE0MjFANjg1ZmY3NzEtMWUwNy01YmVmLWE2NjUtZDRlYzVmNmJhODA3LmFsZ28w
CgYIKoZIzj0EAwIDaQAwZgIxAL1b2vtUtoD5j3bmBunRy/FMErbDU83bl9Uirp32
Cqz6cqX4I4EwvLlyuwZsJAfHigIxAMv85yi168Cgx3nmyLT9eayZAzB+b9WGS0eC
FvpxwQAg7nrr5X+NbP7U3bqrNu0+xQ==
-----END CERTIFICATE-----
