Certificate:
    Data:
        Version: 3 (0x2)
        Serial Number: 4 (0x4)
        Signature Algorithm: ecdsa-with-SHA256
        Issuer: CN=178.62.36.187
        Validity
            Not Before: May 23 08:18:15 2020 GMT
            Not After : May 21 08:18:15 2030 GMT
        Subject: CN=platopoi
        Subject Public Key Info:
            Public Key Algorithm: id-ecPublicKey
                Public-Key: (384 bit)
                pub:
                    04:b4:83:68:c8:7e:96:87:c1:a7:e6:a3:54:63:65:
                    67:9f:5f:63:91:ee:9d:dc:93:98:bf:8a:9e:30:3d:
                    e7:76:c8:b5:83:0b:33:d9:12:f5:d8:a0:ea:f0:49:
                    7c:95:31:50:55:4b:2c:9b:12:89:f2:c1:00:2a:c9:
                    24:b9:a6:40:9d:ae:bc:14:f5:77:e6:9f:20:94:a7:
                    c0:00:ea:ab:4c:18:df:29:5b:14:6a:07:c2:32:b8:
                    f6:5a:b3:c6:3e:75:54
                ASN1 OID: secp384r1
                NIST CURVE: P-384
        X509v3 extensions:
            X509v3 Basic Constraints: 
                CA:FALSE
            X509v3 Subject Key Identifier: 
                F0:27:BA:04:34:77:46:C9:17:38:E6:87:BD:82:FC:73:BB:90:D2:4C
            X509v3 Authority Key Identifier: 
                keyid:A1:0A:98:18:63:C0:96:94:A9:8B:7D:F2:3F:07:0E:08:DE:FC:E1:24
                DirName:/CN=178.62.36.187
                serial:36:F8:B4:C1:76:58:39:6D:C9:37:AB:59:47:58:5B:74:3F:A0:EA:4C

            X509v3 Extended Key Usage: 
                TLS Web Server Authentication, TLS Web Client Authentication, ipsec Internet Key Exchange
            X509v3 Key Usage: 
                Digital Signature, Key Encipherment
            X509v3 Subject Alternative Name: 
                email:platopoi@685ff771-1e07-5bef-a665-d4ec5f6ba807.algo
    Signature Algorithm: ecdsa-with-SHA256
         30:64:02:30:03:a5:dc:89:63:6c:d9:df:5a:a8:a0:7d:a4:1e:
         b4:ee:36:ac:56:37:20:de:73:4a:bd:54:f5:a9:aa:82:b4:47:
         cf:83:d5:27:6d:96:9f:2b:5e:3e:42:5c:0c:a8:6b:57:02:30:
         51:db:ef:d2:0c:be:08:8c:e1:f2:2d:1a:ec:91:f7:34:01:95:
         19:a9:08:2e:39:db:f5:5a:15:5f:05:b8:ab:5d:52:0a:74:63:
         99:6b:8c:8a:bd:01:3b:69:25:ee:7b:ed
-----BEGIN CERTIFICATE-----
MIICTjCCAdWgAwIBAgIBBDAKBggqhkjOPQQDAjAYMRYwFAYDVQQDDA0xNzguNjIu
MzYuMTg3MB4XDTIwMDUyMzA4MTgxNVoXDTMwMDUyMTA4MTgxNVowEzERMA8GA1UE
AwwIcGxhdG9wb2kwdjAQBgcqhkjOPQIBBgUrgQQAIgNiAAS0g2jIfpaHwafmo1Rj
ZWefX2OR7p3ck5i/ip4wPed2yLWDCzPZEvXYoOrwSXyVMVBVSyybEonywQAqySS5
pkCdrrwU9XfmnyCUp8AA6qtMGN8pWxRqB8IyuPZas8Y+dVSjgfcwgfQwCQYDVR0T
BAIwADAdBgNVHQ4EFgQU8Ce6BDR3RskXOOaHvYL8c7uQ0kwwUwYDVR0jBEwwSoAU
oQqYGGPAlpSpi33yPwcOCN784SShHKQaMBgxFjAUBgNVBAMMDTE3OC42Mi4zNi4x
ODeCFDb4tMF2WDltyTerWUdYW3Q/oOpMMCcGA1UdJQQgMB4GCCsGAQUFBwMBBggr
BgEFBQcDAgYIKwYBBQUHAxEwCwYDVR0PBAQDAgWgMD0GA1UdEQQ2MDSBMnBsYXRv
cG9pQDY4NWZmNzcxLTFlMDctNWJlZi1hNjY1LWQ0ZWM1ZjZiYTgwNy5hbGdvMAoG
CCqGSM49BAMCA2cAMGQCMAOl3IljbNnfWqigfaQetO42rFY3IN5zSr1U9amqgrRH
z4PVJ22WnytePkJcDKhrVwIwUdvv0gy+CIzh8i0a7JH3NAGVGakILjnb9VoVXwW4
q11SCnRjmWuMir0BO2kl7nvt
-----END CERTIFICATE-----
