Certificate:
    Data:
        Version: 3 (0x2)
        Serial Number: 5 (0x5)
        Signature Algorithm: ecdsa-with-SHA256
        Issuer: CN=178.62.36.187
        Validity
            Not Before: May 23 08:18:16 2020 GMT
            Not After : May 21 08:18:16 2030 GMT
        Subject: CN=phone
        Subject Public Key Info:
            Public Key Algorithm: id-ecPublicKey
                Public-Key: (384 bit)
                pub:
                    04:bf:11:8f:dc:87:1f:93:85:f4:a1:62:38:00:0b:
                    96:33:4d:b4:43:cb:f0:62:82:e8:ba:e9:cc:8d:77:
                    c6:50:ae:fa:fc:14:ff:18:c2:da:0f:10:83:09:c8:
                    75:e7:55:b9:0f:1c:de:c2:c3:0b:c8:e7:d7:07:8a:
                    e2:66:3c:be:fc:20:aa:75:c7:aa:c8:c1:b4:c0:2d:
                    25:94:79:75:aa:ed:19:a2:67:32:5f:4e:fa:60:b6:
                    b2:46:db:61:6d:3b:55
                ASN1 OID: secp384r1
                NIST CURVE: P-384
        X509v3 extensions:
            X509v3 Basic Constraints: 
                CA:FALSE
            X509v3 Subject Key Identifier: 
                12:DB:DF:1C:48:B4:CE:63:37:E9:68:9C:28:75:D2:7D:4E:B8:00:0E
            X509v3 Authority Key Identifier: 
                keyid:A1:0A:98:18:63:C0:96:94:A9:8B:7D:F2:3F:07:0E:08:DE:FC:E1:24
                DirName:/CN=178.62.36.187
                serial:36:F8:B4:C1:76:58:39:6D:C9:37:AB:59:47:58:5B:74:3F:A0:EA:4C

            X509v3 Extended Key Usage: 
                TLS Web Server Authentication, TLS Web Client Authentication, ipsec Internet Key Exchange
            X509v3 Key Usage: 
                Digital Signature, Key Encipherment
            X509v3 Subject Alternative Name: 
                email:phone@685ff771-1e07-5bef-a665-d4ec5f6ba807.algo
    Signature Algorithm: ecdsa-with-SHA256
         30:65:02:30:7e:97:43:1e:d7:39:2d:b3:26:15:75:85:c1:76:
         dd:90:8e:99:91:b5:ba:5b:5b:cb:e8:6f:77:01:a4:5c:2e:cf:
         cb:7b:fa:03:7d:5e:67:85:c6:bf:2e:f2:ee:0e:1d:d3:02:31:
         00:e1:29:b4:91:ed:d0:cf:f9:6e:57:62:f4:37:18:8a:db:b0:
         0f:6c:b2:45:a0:41:49:74:50:41:b8:65:a4:46:83:a6:0a:4e:
         e1:75:b5:ba:09:fd:ab:1a:f3:c9:1c:86:b1
-----BEGIN CERTIFICATE-----
MIICSTCCAc+gAwIBAgIBBTAKBggqhkjOPQQDAjAYMRYwFAYDVQQDDA0xNzguNjIu
MzYuMTg3MB4XDTIwMDUyMzA4MTgxNloXDTMwMDUyMTA4MTgxNlowEDEOMAwGA1UE
AwwFcGhvbmUwdjAQBgcqhkjOPQIBBgUrgQQAIgNiAAS/EY/chx+ThfShYjgAC5Yz
TbRDy/Bigui66cyNd8ZQrvr8FP8YwtoPEIMJyHXnVbkPHN7CwwvI59cHiuJmPL78
IKp1x6rIwbTALSWUeXWq7RmiZzJfTvpgtrJG22FtO1WjgfQwgfEwCQYDVR0TBAIw
ADAdBgNVHQ4EFgQUEtvfHEi0zmM36WicKHXSfU64AA4wUwYDVR0jBEwwSoAUoQqY
GGPAlpSpi33yPwcOCN784SShHKQaMBgxFjAUBgNVBAMMDTE3OC42Mi4zNi4xODeC
FDb4tMF2WDltyTerWUdYW3Q/oOpMMCcGA1UdJQQgMB4GCCsGAQUFBwMBBggrBgEF
BQcDAgYIKwYBBQUHAxEwCwYDVR0PBAQDAgWgMDoGA1UdEQQzMDGBL3Bob25lQDY4
NWZmNzcxLTFlMDctNWJlZi1hNjY1LWQ0ZWM1ZjZiYTgwNy5hbGdvMAoGCCqGSM49
BAMCA2gAMGUCMH6XQx7XOS2zJhV1hcF23ZCOmZG1ultby+hvdwGkXC7Py3v6A31e
Z4XGvy7y7g4d0wIxAOEptJHt0M/5bldi9DcYituwD2yyRaBBSXRQQbhlpEaDpgpO
4XW1ugn9qxrzyRyGsQ==
-----END CERTIFICATE-----
