Certificate:
    Data:
        Version: 3 (0x2)
        Serial Number: 7 (0x7)
        Signature Algorithm: ecdsa-with-SHA256
        Issuer: CN=178.62.36.187
        Validity
            Not Before: May 23 08:18:16 2020 GMT
            Not After : May 21 08:18:16 2030 GMT
        Subject: CN=desktop
        Subject Public Key Info:
            Public Key Algorithm: id-ecPublicKey
                Public-Key: (384 bit)
                pub:
                    04:01:ef:c3:77:2c:be:6a:9b:c7:e8:d0:16:2b:d9:
                    0c:a5:fa:76:dd:bc:42:1b:78:96:ef:23:6a:6f:67:
                    6c:32:a7:b7:1a:61:46:94:62:95:65:9b:02:d2:5e:
                    b2:84:cc:d4:d9:54:2e:27:25:db:b5:12:ea:c3:d0:
                    4b:9b:71:6e:04:aa:ec:84:04:21:29:e3:44:f3:84:
                    64:09:c7:b6:5e:a9:89:63:c4:f2:47:85:72:58:dd:
                    17:0b:13:ad:c5:6d:c6
                ASN1 OID: secp384r1
                NIST CURVE: P-384
        X509v3 extensions:
            X509v3 Basic Constraints: 
                CA:FALSE
            X509v3 Subject Key Identifier: 
                35:C8:39:EB:5A:34:17:5C:25:D4:13:66:54:56:6F:E6:54:15:A2:6E
            X509v3 Authority Key Identifier: 
                keyid:A1:0A:98:18:63:C0:96:94:A9:8B:7D:F2:3F:07:0E:08:DE:FC:E1:24
                DirName:/CN=178.62.36.187
                serial:36:F8:B4:C1:76:58:39:6D:C9:37:AB:59:47:58:5B:74:3F:A0:EA:4C

            X509v3 Extended Key Usage: 
                TLS Web Server Authentication, TLS Web Client Authentication, ipsec Internet Key Exchange
            X509v3 Key Usage: 
                Digital Signature, Key Encipherment
            X509v3 Subject Alternative Name: 
                email:desktop@685ff771-1e07-5bef-a665-d4ec5f6ba807.algo
    Signature Algorithm: ecdsa-with-SHA256
         30:64:02:30:1e:2d:b2:af:65:24:b7:ea:8f:42:4d:6c:01:35:
         96:19:de:d6:01:ac:f1:91:fb:43:92:45:be:a8:47:eb:17:34:
         43:7b:a4:4f:db:00:1f:4d:38:75:4d:8f:98:53:da:83:02:30:
         45:12:7b:d3:28:99:06:71:74:49:7c:d4:45:44:46:37:97:16:
         6b:14:d3:eb:7b:64:df:47:e9:a9:84:77:3b:86:b9:c0:58:c0:
         e7:a8:e8:03:01:76:d8:4d:85:9d:cb:70
-----BEGIN CERTIFICATE-----
MIICTDCCAdOgAwIBAgIBBzAKBggqhkjOPQQDAjAYMRYwFAYDVQQDDA0xNzguNjIu
MzYuMTg3MB4XDTIwMDUyMzA4MTgxNloXDTMwMDUyMTA4MTgxNlowEjEQMA4GA1UE
AwwHZGVza3RvcDB2MBAGByqGSM49AgEGBSuBBAAiA2IABAHvw3csvmqbx+jQFivZ
DKX6dt28Qht4lu8jam9nbDKntxphRpRilWWbAtJesoTM1NlULicl27US6sPQS5tx
bgSq7IQEISnjRPOEZAnHtl6piWPE8keFcljdFwsTrcVtxqOB9jCB8zAJBgNVHRME
AjAAMB0GA1UdDgQWBBQ1yDnrWjQXXCXUE2ZUVm/mVBWibjBTBgNVHSMETDBKgBSh
CpgYY8CWlKmLffI/Bw4I3vzhJKEcpBowGDEWMBQGA1UEAwwNMTc4LjYyLjM2LjE4
N4IUNvi0wXZYOW3JN6tZR1hbdD+g6kwwJwYDVR0lBCAwHgYIKwYBBQUHAwEGCCsG
AQUFBwMCBggrBgEFBQcDETALBgNVHQ8EBAMCBaAwPAYDVR0RBDUwM4ExZGVza3Rv
cEA2ODVmZjc3MS0xZTA3LTViZWYtYTY2NS1kNGVjNWY2YmE4MDcuYWxnbzAKBggq
hkjOPQQDAgNnADBkAjAeLbKvZSS36o9CTWwBNZYZ3tYBrPGR+0OSRb6oR+sXNEN7
pE/bAB9NOHVNj5hT2oMCMEUSe9MomQZxdEl81EVERjeXFmsU0+t7ZN9H6amEdzuG
ucBYwOeo6AMBdthNhZ3LcA==
-----END CERTIFICATE-----
